target datalayout = "e-m:e-p270:32:32-p271:32:32-p272:64:64-i64:64-i128:128-f80:128-n8:16:32:64-S128"
target triple = "x86_64-pc-linux-gnu"

%"class.open3d::core::Dtype" = type { i32, i64, [16 x i8] }
%"class.std::__cxx11::basic_string" = type { %"struct.std::__cxx11::basic_string<char>::_Alloc_hider", i64, %union.anon }
%"struct.std::__cxx11::basic_string<char>::_Alloc_hider" = type { ptr }
%union.anon = type { i64, [8 x i8] }

@.str.1 = private unnamed_addr constant [119 x i8] c"generated/home/dtcxzyw/WorkSpace/Projects/compilers/llvm-opt-benchmark/bench/open3d/Open3D/cpp/open3d/t/io/NumpyIO.cpp\00", align 1
@_ZN6open3d4core7Float32E = external global %"class.open3d::core::Dtype", align 8
@_ZN6open3d4core7Float64E = external global %"class.open3d::core::Dtype", align 8
@_ZN6open3d4core4Int8E = external global %"class.open3d::core::Dtype", align 8
@_ZN6open3d4core5Int16E = external global %"class.open3d::core::Dtype", align 8
@_ZN6open3d4core5Int32E = external global %"class.open3d::core::Dtype", align 8
@_ZN6open3d4core5Int64E = external global %"class.open3d::core::Dtype", align 8
@_ZN6open3d4core5UInt8E = external global %"class.open3d::core::Dtype", align 8
@_ZN6open3d4core6UInt16E = external global %"class.open3d::core::Dtype", align 8
@_ZN6open3d4core6UInt32E = external global %"class.open3d::core::Dtype", align 8
@_ZN6open3d4core6UInt64E = external global %"class.open3d::core::Dtype", align 8
@_ZN6open3d4core4BoolE = external global %"class.open3d::core::Dtype", align 8
@__PRETTY_FUNCTION__._ZN6open3d1t2ioL11DtypeToCharERKNS_4core5DtypeE = private unnamed_addr constant [53 x i8] c"char open3d::t::io::DtypeToChar(const core::Dtype &)\00", align 1
@.str.241 = private unnamed_addr constant [22 x i8] c"Unsupported dtype: {}\00", align 1

; Function Attrs: mustprogress nounwind ssp uwtable
define linkonce_odr void @_ZNSt15__new_allocatorIcE10deallocateEPcm(ptr noundef nonnull align 1 dereferenceable(1) %0, ptr noundef %1, i64 noundef %2) #5 comdat align 2 {
  %4 = alloca ptr, align 8
  %5 = alloca ptr, align 8
  %6 = alloca i64, align 8
  store ptr %0, ptr %4, align 8, !tbaa !24
  store ptr %1, ptr %5, align 8, !tbaa !23
  store i64 %2, ptr %6, align 8, !tbaa !29
  %7 = load ptr, ptr %5, align 8, !tbaa !23
  %8 = load i64, ptr %6, align 8, !tbaa !29
  %9 = mul i64 %8, 1
  call void @_ZdlPvm(ptr noundef %7, i64 noundef %9) #35
  ret void
}

; Function Attrs: mustprogress nounwind ssp uwtable
define linkonce_odr noundef ptr @_ZNSt19__ptr_traits_ptr_toIPKcS0_Lb0EE10pointer_toERS0_(ptr noundef nonnull align 1 dereferenceable(1) %0) #5 comdat align 2 {
  %2 = alloca ptr, align 8
  store ptr %0, ptr %2, align 8, !tbaa !23
  %3 = load ptr, ptr %2, align 8, !tbaa !23
  ret ptr %3
}

; Function Attrs: alwaysinline mustprogress ssp uwtable
define linkonce_odr void @_ZNSt16allocator_traitsISaIcEE10deallocateERS0_Pcm(ptr noundef nonnull align 1 dereferenceable(1) %0, ptr noundef %1, i64 noundef %2) #9 comdat align 2 {
  %4 = alloca ptr, align 8
  %5 = alloca ptr, align 8
  %6 = alloca i64, align 8
  store ptr %0, ptr %4, align 8, !tbaa !21
  store ptr %1, ptr %5, align 8, !tbaa !23
  store i64 %2, ptr %6, align 8, !tbaa !29
  %7 = load ptr, ptr %4, align 8, !tbaa !21
  %8 = load ptr, ptr %5, align 8, !tbaa !23
  %9 = load i64, ptr %6, align 8, !tbaa !29
  call void @_ZNSt15__new_allocatorIcE10deallocateEPcm(ptr noundef nonnull align 1 dereferenceable(1) %7, ptr noundef %8, i64 noundef %9)
  ret void
}

; Function Attrs: mustprogress nounwind ssp uwtable
define available_externally noundef nonnull align 1 dereferenceable(1) ptr @_ZNSt7__cxx1112basic_stringIcSt11char_traitsIcESaIcEE16_M_get_allocatorEv(ptr noundef nonnull align 8 dereferenceable(32) %0) #5 align 2 {
  %2 = alloca ptr, align 8
  store ptr %0, ptr %2, align 8, !tbaa !4
  %3 = load ptr, ptr %2, align 8
  %4 = getelementptr inbounds nuw %"class.std::__cxx11::basic_string", ptr %3, i32 0, i32 0
  ret ptr %4
}

; Function Attrs: mustprogress nounwind ssp uwtable
define available_externally noundef ptr @_ZNKSt7__cxx1112basic_stringIcSt11char_traitsIcESaIcEE13_M_local_dataEv(ptr noundef nonnull align 8 dereferenceable(32) %0) #5 align 2 {
  %2 = alloca ptr, align 8
  store ptr %0, ptr %2, align 8, !tbaa !4
  %3 = load ptr, ptr %2, align 8
  %4 = getelementptr inbounds nuw %"class.std::__cxx11::basic_string", ptr %3, i32 0, i32 2
  %5 = getelementptr inbounds [16 x i8], ptr %4, i64 0, i64 0
  %6 = call noundef ptr @_ZNSt19__ptr_traits_ptr_toIPKcS0_Lb0EE10pointer_toERS0_(ptr noundef nonnull align 1 dereferenceable(1) %5) #28
  ret ptr %6
}

; Function Attrs: mustprogress nounwind ssp uwtable
define available_externally noundef ptr @_ZNKSt7__cxx1112basic_stringIcSt11char_traitsIcESaIcEE7_M_dataEv(ptr noundef nonnull align 8 dereferenceable(32) %0) #5 align 2 {
  %2 = alloca ptr, align 8
  store ptr %0, ptr %2, align 8, !tbaa !4
  %3 = load ptr, ptr %2, align 8
  %4 = getelementptr inbounds nuw %"class.std::__cxx11::basic_string", ptr %3, i32 0, i32 0
  %5 = getelementptr inbounds nuw %"struct.std::__cxx11::basic_string<char>::_Alloc_hider", ptr %4, i32 0, i32 0
  %6 = load ptr, ptr %5, align 8, !tbaa !71
  ret ptr %6
}

; Function Attrs: mustprogress nounwind ssp uwtable
define linkonce_odr void @_ZNSt15__new_allocatorIcED2Ev(ptr noundef nonnull align 1 dereferenceable(1) %0) unnamed_addr #5 comdat align 2 {
  %2 = alloca ptr, align 8
  store ptr %0, ptr %2, align 8, !tbaa !24
  ret void
}

; Function Attrs: mustprogress nounwind ssp uwtable
define available_externally void @_ZNSt7__cxx1112basic_stringIcSt11char_traitsIcESaIcEE10_M_destroyEm(ptr noundef nonnull align 8 dereferenceable(32) %0, i64 noundef %1) #5 align 2 personality ptr @__gxx_personality_v0 {
  %3 = alloca ptr, align 8
  %4 = alloca i64, align 8
  store ptr %0, ptr %3, align 8, !tbaa !4
  store i64 %1, ptr %4, align 8, !tbaa !29
  %5 = load ptr, ptr %3, align 8
  %6 = invoke noundef nonnull align 1 dereferenceable(1) ptr @_ZNSt7__cxx1112basic_stringIcSt11char_traitsIcESaIcEE16_M_get_allocatorEv(ptr noundef nonnull align 8 dereferenceable(32) %5)
          to label %7 unwind label %12

7:                                                ; preds = %2
  %8 = call noundef ptr @_ZNKSt7__cxx1112basic_stringIcSt11char_traitsIcESaIcEE7_M_dataEv(ptr noundef nonnull align 8 dereferenceable(32) %5)
  %9 = load i64, ptr %4, align 8, !tbaa !29
  %10 = add i64 %9, 1
  invoke void @_ZNSt16allocator_traitsISaIcEE10deallocateERS0_Pcm(ptr noundef nonnull align 1 dereferenceable(1) %6, ptr noundef %8, i64 noundef %10)
          to label %11 unwind label %12

11:                                               ; preds = %7
  ret void

12:                                               ; preds = %7, %2
  %13 = landingpad { ptr, i32 }
          catch ptr null
  %14 = extractvalue { ptr, i32 } %13, 0
  call void @__clang_call_terminate(ptr %14) #34
  unreachable
}

; Function Attrs: mustprogress ssp uwtable
define available_externally noundef zeroext i1 @_ZNKSt7__cxx1112basic_stringIcSt11char_traitsIcESaIcEE11_M_is_localEv(ptr noundef nonnull align 8 dereferenceable(32) %0) #0 align 2 {
  %2 = alloca i1, align 1
  %3 = alloca ptr, align 8
  store ptr %0, ptr %3, align 8, !tbaa !4
  %4 = load ptr, ptr %3, align 8
  %5 = call noundef ptr @_ZNKSt7__cxx1112basic_stringIcSt11char_traitsIcESaIcEE7_M_dataEv(ptr noundef nonnull align 8 dereferenceable(32) %4)
  %6 = call noundef ptr @_ZNKSt7__cxx1112basic_stringIcSt11char_traitsIcESaIcEE13_M_local_dataEv(ptr noundef nonnull align 8 dereferenceable(32) %4)
  %7 = icmp eq ptr %5, %6
  br i1 %7, label %8, label %14

8:                                                ; preds = %1
  %9 = getelementptr inbounds nuw %"class.std::__cxx11::basic_string", ptr %4, i32 0, i32 1
  %10 = load i64, ptr %9, align 8, !tbaa !78
  %11 = icmp ugt i64 %10, 15
  br i1 %11, label %12, label %13

12:                                               ; preds = %8
  unreachable

13:                                               ; preds = %8
  store i1 true, ptr %2, align 1
  br label %15

14:                                               ; preds = %1
  store i1 false, ptr %2, align 1
  br label %15

15:                                               ; preds = %14, %13
  %16 = load i1, ptr %2, align 1
  ret i1 %16
}

; Function Attrs: noinline noreturn nounwind ssp uwtable
define linkonce_odr hidden void @__clang_call_terminate(ptr noundef %0) #10 comdat {
  %2 = call ptr @__cxa_begin_catch(ptr %0) #28
  call void @_ZSt9terminatev() #34
  unreachable
}

; Function Attrs: inlinehint mustprogress nounwind ssp uwtable
define linkonce_odr void @_ZNSt7__cxx1112basic_stringIcSt11char_traitsIcESaIcEE12_Alloc_hiderD2Ev(ptr noundef nonnull align 8 dereferenceable(8) %0) unnamed_addr #2 comdat align 2 {
  %2 = alloca ptr, align 8
  store ptr %0, ptr %2, align 8, !tbaa !65
  %3 = load ptr, ptr %2, align 8
  call void @_ZNSt15__new_allocatorIcED2Ev(ptr noundef nonnull align 1 dereferenceable(1) %3) #28
  ret void
}

; Function Attrs: mustprogress ssp uwtable
define available_externally void @_ZNSt7__cxx1112basic_stringIcSt11char_traitsIcESaIcEE10_M_disposeEv(ptr noundef nonnull align 8 dereferenceable(32) %0) #0 align 2 {
  %2 = alloca ptr, align 8
  store ptr %0, ptr %2, align 8, !tbaa !4
  %3 = load ptr, ptr %2, align 8
  %4 = call noundef zeroext i1 @_ZNKSt7__cxx1112basic_stringIcSt11char_traitsIcESaIcEE11_M_is_localEv(ptr noundef nonnull align 8 dereferenceable(32) %3)
  br i1 %4, label %8, label %5

5:                                                ; preds = %1
  %6 = getelementptr inbounds nuw %"class.std::__cxx11::basic_string", ptr %3, i32 0, i32 2
  %7 = load i64, ptr %6, align 8, !tbaa !28
  call void @_ZNSt7__cxx1112basic_stringIcSt11char_traitsIcESaIcEE10_M_destroyEm(ptr noundef nonnull align 8 dereferenceable(32) %3, i64 noundef %7) #28
  br label %8

8:                                                ; preds = %5, %1
  ret void
}

; Function Attrs: mustprogress nounwind ssp uwtable
define available_externally void @_ZNSt7__cxx1112basic_stringIcSt11char_traitsIcESaIcEED2Ev(ptr noundef nonnull align 8 dereferenceable(32) %0) unnamed_addr #5 align 2 personality ptr @__gxx_personality_v0 {
  %2 = alloca ptr, align 8
  store ptr %0, ptr %2, align 8, !tbaa !4
  %3 = load ptr, ptr %2, align 8
  invoke void @_ZNSt7__cxx1112basic_stringIcSt11char_traitsIcESaIcEE10_M_disposeEv(ptr noundef nonnull align 8 dereferenceable(32) %3)
          to label %4 unwind label %6

4:                                                ; preds = %1
  %5 = getelementptr inbounds nuw %"class.std::__cxx11::basic_string", ptr %3, i32 0, i32 0
  call void @_ZNSt7__cxx1112basic_stringIcSt11char_traitsIcESaIcEE12_Alloc_hiderD2Ev(ptr noundef nonnull align 8 dereferenceable(8) %5) #28
  ret void

6:                                                ; preds = %1
  %7 = landingpad { ptr, i32 }
          catch ptr null
  %8 = extractvalue { ptr, i32 } %7, 0
  call void @__clang_call_terminate(ptr %8) #34
  unreachable
}

; Function Attrs: mustprogress ssp uwtable
define internal noundef signext i8 @_ZN6open3d1t2ioL11DtypeToCharERKNS_4core5DtypeE(ptr noundef nonnull align 8 dereferenceable(32) %0) #0 personality ptr @__gxx_personality_v0 {
  %2 = alloca i8, align 1
  %3 = alloca ptr, align 8
  %4 = alloca %"class.std::__cxx11::basic_string", align 8
  %5 = alloca ptr, align 8
  %6 = alloca i32, align 4
  store ptr %0, ptr %3, align 8, !tbaa !1807
  %7 = load ptr, ptr %3, align 8, !tbaa !1807
  %8 = call noundef zeroext i1 @_ZNK6open3d4core5DtypeeqERKS1_(ptr noundef nonnull align 8 dereferenceable(32) %7, ptr noundef nonnull align 8 dereferenceable(32) @_ZN6open3d4core7Float32E)
  br i1 %8, label %9, label %10

9:                                                ; preds = %1
  store i8 102, ptr %2, align 1
  br label %57

10:                                               ; preds = %1
  %11 = load ptr, ptr %3, align 8, !tbaa !1807
  %12 = call noundef zeroext i1 @_ZNK6open3d4core5DtypeeqERKS1_(ptr noundef nonnull align 8 dereferenceable(32) %11, ptr noundef nonnull align 8 dereferenceable(32) @_ZN6open3d4core7Float64E)
  br i1 %12, label %13, label %14

13:                                               ; preds = %10
  store i8 102, ptr %2, align 1
  br label %57

14:                                               ; preds = %10
  %15 = load ptr, ptr %3, align 8, !tbaa !1807
  %16 = call noundef zeroext i1 @_ZNK6open3d4core5DtypeeqERKS1_(ptr noundef nonnull align 8 dereferenceable(32) %15, ptr noundef nonnull align 8 dereferenceable(32) @_ZN6open3d4core4Int8E)
  br i1 %16, label %17, label %18

17:                                               ; preds = %14
  store i8 105, ptr %2, align 1
  br label %57

18:                                               ; preds = %14
  %19 = load ptr, ptr %3, align 8, !tbaa !1807
  %20 = call noundef zeroext i1 @_ZNK6open3d4core5DtypeeqERKS1_(ptr noundef nonnull align 8 dereferenceable(32) %19, ptr noundef nonnull align 8 dereferenceable(32) @_ZN6open3d4core5Int16E)
  br i1 %20, label %21, label %22

21:                                               ; preds = %18
  store i8 105, ptr %2, align 1
  br label %57

22:                                               ; preds = %18
  %23 = load ptr, ptr %3, align 8, !tbaa !1807
  %24 = call noundef zeroext i1 @_ZNK6open3d4core5DtypeeqERKS1_(ptr noundef nonnull align 8 dereferenceable(32) %23, ptr noundef nonnull align 8 dereferenceable(32) @_ZN6open3d4core5Int32E)
  br i1 %24, label %25, label %26

25:                                               ; preds = %22
  store i8 105, ptr %2, align 1
  br label %57

26:                                               ; preds = %22
  %27 = load ptr, ptr %3, align 8, !tbaa !1807
  %28 = call noundef zeroext i1 @_ZNK6open3d4core5DtypeeqERKS1_(ptr noundef nonnull align 8 dereferenceable(32) %27, ptr noundef nonnull align 8 dereferenceable(32) @_ZN6open3d4core5Int64E)
  br i1 %28, label %29, label %30

29:                                               ; preds = %26
  store i8 105, ptr %2, align 1
  br label %57

30:                                               ; preds = %26
  %31 = load ptr, ptr %3, align 8, !tbaa !1807
  %32 = call noundef zeroext i1 @_ZNK6open3d4core5DtypeeqERKS1_(ptr noundef nonnull align 8 dereferenceable(32) %31, ptr noundef nonnull align 8 dereferenceable(32) @_ZN6open3d4core5UInt8E)
  br i1 %32, label %33, label %34

33:                                               ; preds = %30
  store i8 117, ptr %2, align 1
  br label %57

34:                                               ; preds = %30
  %35 = load ptr, ptr %3, align 8, !tbaa !1807
  %36 = call noundef zeroext i1 @_ZNK6open3d4core5DtypeeqERKS1_(ptr noundef nonnull align 8 dereferenceable(32) %35, ptr noundef nonnull align 8 dereferenceable(32) @_ZN6open3d4core6UInt16E)
  br i1 %36, label %37, label %38

37:                                               ; preds = %34
  store i8 117, ptr %2, align 1
  br label %57

38:                                               ; preds = %34
  %39 = load ptr, ptr %3, align 8, !tbaa !1807
  %40 = call noundef zeroext i1 @_ZNK6open3d4core5DtypeeqERKS1_(ptr noundef nonnull align 8 dereferenceable(32) %39, ptr noundef nonnull align 8 dereferenceable(32) @_ZN6open3d4core6UInt32E)
  br i1 %40, label %41, label %42

41:                                               ; preds = %38
  store i8 117, ptr %2, align 1
  br label %57

42:                                               ; preds = %38
  %43 = load ptr, ptr %3, align 8, !tbaa !1807
  %44 = call noundef zeroext i1 @_ZNK6open3d4core5DtypeeqERKS1_(ptr noundef nonnull align 8 dereferenceable(32) %43, ptr noundef nonnull align 8 dereferenceable(32) @_ZN6open3d4core6UInt64E)
  br i1 %44, label %45, label %46

45:                                               ; preds = %42
  store i8 117, ptr %2, align 1
  br label %57

46:                                               ; preds = %42
  %47 = load ptr, ptr %3, align 8, !tbaa !1807
  %48 = call noundef zeroext i1 @_ZNK6open3d4core5DtypeeqERKS1_(ptr noundef nonnull align 8 dereferenceable(32) %47, ptr noundef nonnull align 8 dereferenceable(32) @_ZN6open3d4core4BoolE)
  br i1 %48, label %49, label %50

49:                                               ; preds = %46
  store i8 98, ptr %2, align 1
  br label %57

50:                                               ; preds = %46
  call void @llvm.lifetime.start.p0(i64 32, ptr %4) #28
  %51 = load ptr, ptr %3, align 8, !tbaa !1807
  call void @_ZNK6open3d4core5Dtype8ToStringB5cxx11Ev(ptr dead_on_unwind writable sret(%"class.std::__cxx11::basic_string") align 8 %4, ptr noundef nonnull align 8 dereferenceable(32) %51)
  invoke void @_ZN6open3d7utility6Logger9LogError_IJNSt7__cxx1112basic_stringIcSt11char_traitsIcESaIcEEEEEEvPKciSA_SA_DpOT_(ptr noundef @.str.1, i32 noundef 153, ptr noundef @__PRETTY_FUNCTION__._ZN6open3d1t2ioL11DtypeToCharERKNS_4core5DtypeE, ptr noundef @.str.241, ptr noundef nonnull align 8 dereferenceable(32) %4) #33
          to label %52 unwind label %53

52:                                               ; preds = %50
  unreachable

53:                                               ; preds = %50
  %54 = landingpad { ptr, i32 }
          cleanup
  %55 = extractvalue { ptr, i32 } %54, 0
  store ptr %55, ptr %5, align 8
  %56 = extractvalue { ptr, i32 } %54, 1
  store i32 %56, ptr %6, align 4
  call void @_ZNSt7__cxx1112basic_stringIcSt11char_traitsIcESaIcEED2Ev(ptr noundef nonnull align 8 dereferenceable(32) %4) #28
  call void @llvm.lifetime.end.p0(i64 32, ptr %4) #28
  br label %59

57:                                               ; preds = %49, %45, %41, %37, %33, %29, %25, %21, %17, %13, %9
  %58 = load i8, ptr %2, align 1
  ret i8 %58

59:                                               ; preds = %53
  %60 = load ptr, ptr %5, align 8
  %61 = load i32, ptr %6, align 4
  %62 = insertvalue { ptr, i32 } poison, ptr %60, 0
  %63 = insertvalue { ptr, i32 } %62, i32 %61, 1
  resume { ptr, i32 } %63
}